
a.out:     file format elf64-x86-64


Disassembly of section .text:

0000000000202000 <_start>:
  202000:	31 ed                	xor    %ebp,%ebp
  202002:	49 89 d1             	mov    %rdx,%r9
  202005:	5e                   	pop    %rsi
  202006:	48 89 e2             	mov    %rsp,%rdx
  202009:	48 83 e4 f0          	and    $0xfffffffffffffff0,%rsp
  20200d:	50                   	push   %rax
  20200e:	54                   	push   %rsp
  20200f:	49 c7 c0 c0 2b 20 00 	mov    $0x202bc0,%r8
  202016:	48 c7 c1 50 2b 20 00 	mov    $0x202b50,%rcx
  20201d:	48 c7 c7 23 29 20 00 	mov    $0x202923,%rdi
  202024:	e8 d7 0b 00 00       	callq  202c00 <__libc_start_main@plt>
  202029:	f4                   	hlt    
  20202a:	cc                   	int3   
  20202b:	cc                   	int3   
  20202c:	cc                   	int3   
  20202d:	cc                   	int3   
  20202e:	cc                   	int3   
  20202f:	cc                   	int3   

0000000000202030 <deregister_tm_clones>:
  202030:	b8 17 30 20 00       	mov    $0x203017,%eax
  202035:	55                   	push   %rbp
  202036:	48 2d 10 30 20 00    	sub    $0x203010,%rax
  20203c:	48 83 f8 0e          	cmp    $0xe,%rax
  202040:	48 89 e5             	mov    %rsp,%rbp
  202043:	76 1b                	jbe    202060 <deregister_tm_clones+0x30>
  202045:	b8 00 00 00 00       	mov    $0x0,%eax
  20204a:	48 85 c0             	test   %rax,%rax
  20204d:	74 11                	je     202060 <deregister_tm_clones+0x30>
  20204f:	5d                   	pop    %rbp
  202050:	bf 10 30 20 00       	mov    $0x203010,%edi
  202055:	ff e0                	jmpq   *%rax
  202057:	66 0f 1f 84 00 00 00 	nopw   0x0(%rax,%rax,1)
  20205e:	00 00 
  202060:	5d                   	pop    %rbp
  202061:	c3                   	retq   
  202062:	0f 1f 40 00          	nopl   0x0(%rax)
  202066:	66 2e 0f 1f 84 00 00 	nopw   %cs:0x0(%rax,%rax,1)
  20206d:	00 00 00 

0000000000202070 <register_tm_clones>:
  202070:	be 10 30 20 00       	mov    $0x203010,%esi
  202075:	55                   	push   %rbp
  202076:	48 81 ee 10 30 20 00 	sub    $0x203010,%rsi
  20207d:	48 c1 fe 03          	sar    $0x3,%rsi
  202081:	48 89 e5             	mov    %rsp,%rbp
  202084:	48 89 f0             	mov    %rsi,%rax
  202087:	48 c1 e8 3f          	shr    $0x3f,%rax
  20208b:	48 01 c6             	add    %rax,%rsi
  20208e:	48 d1 fe             	sar    %rsi
  202091:	74 15                	je     2020a8 <register_tm_clones+0x38>
  202093:	b8 00 00 00 00       	mov    $0x0,%eax
  202098:	48 85 c0             	test   %rax,%rax
  20209b:	74 0b                	je     2020a8 <register_tm_clones+0x38>
  20209d:	5d                   	pop    %rbp
  20209e:	bf 10 30 20 00       	mov    $0x203010,%edi
  2020a3:	ff e0                	jmpq   *%rax
  2020a5:	0f 1f 00             	nopl   (%rax)
  2020a8:	5d                   	pop    %rbp
  2020a9:	c3                   	retq   
  2020aa:	66 0f 1f 44 00 00    	nopw   0x0(%rax,%rax,1)

00000000002020b0 <__do_global_dtors_aux>:
  2020b0:	80 3d 49 2f 00 00 00 	cmpb   $0x0,0x2f49(%rip)        # 205000 <completed.7585>
  2020b7:	75 11                	jne    2020ca <__do_global_dtors_aux+0x1a>
  2020b9:	55                   	push   %rbp
  2020ba:	48 89 e5             	mov    %rsp,%rbp
  2020bd:	e8 6e ff ff ff       	callq  202030 <deregister_tm_clones>
  2020c2:	5d                   	pop    %rbp
  2020c3:	c6 05 36 2f 00 00 01 	movb   $0x1,0x2f36(%rip)        # 205000 <completed.7585>
  2020ca:	f3 c3                	repz retq 
  2020cc:	0f 1f 40 00          	nopl   0x0(%rax)

00000000002020d0 <frame_dummy>:
  2020d0:	bf 00 40 20 00       	mov    $0x204000,%edi
  2020d5:	48 83 3f 00          	cmpq   $0x0,(%rdi)
  2020d9:	75 05                	jne    2020e0 <frame_dummy+0x10>
  2020db:	eb 93                	jmp    202070 <register_tm_clones>
  2020dd:	0f 1f 00             	nopl   (%rax)
  2020e0:	b8 00 00 00 00       	mov    $0x0,%eax
  2020e5:	48 85 c0             	test   %rax,%rax
  2020e8:	74 f1                	je     2020db <frame_dummy+0xb>
  2020ea:	55                   	push   %rbp
  2020eb:	48 89 e5             	mov    %rsp,%rbp
  2020ee:	ff d0                	callq  *%rax
  2020f0:	5d                   	pop    %rbp
  2020f1:	e9 7a ff ff ff       	jmpq   202070 <register_tm_clones>

00000000002020f6 <__app_roi_begin>:
  2020f6:	55                   	push   %rbp
  2020f7:	48 89 e5             	mov    %rsp,%rbp
  2020fa:	90                   	nop
  2020fb:	5d                   	pop    %rbp
  2020fc:	c3                   	retq   

00000000002020fd <__app_roi_end>:
  2020fd:	55                   	push   %rbp
  2020fe:	48 89 e5             	mov    %rsp,%rbp
  202101:	90                   	nop
  202102:	5d                   	pop    %rbp
  202103:	c3                   	retq   

0000000000202104 <_Z9print_arrPPii>:
  202104:	55                   	push   %rbp
  202105:	48 89 e5             	mov    %rsp,%rbp
  202108:	48 83 ec 20          	sub    $0x20,%rsp
  20210c:	48 89 7d e8          	mov    %rdi,-0x18(%rbp)
  202110:	89 75 e4             	mov    %esi,-0x1c(%rbp)
  202113:	c7 45 f8 00 00 00 00 	movl   $0x0,-0x8(%rbp)
  20211a:	c7 45 fc 00 00 00 00 	movl   $0x0,-0x4(%rbp)
  202121:	c7 45 f8 00 00 00 00 	movl   $0x0,-0x8(%rbp)
  202128:	8b 45 f8             	mov    -0x8(%rbp),%eax
  20212b:	3b 45 e4             	cmp    -0x1c(%rbp),%eax
  20212e:	7d 69                	jge    202199 <_Z9print_arrPPii+0x95>
  202130:	c7 45 fc 00 00 00 00 	movl   $0x0,-0x4(%rbp)
  202137:	8b 45 fc             	mov    -0x4(%rbp),%eax
  20213a:	3b 45 e4             	cmp    -0x1c(%rbp),%eax
  20213d:	7d 45                	jge    202184 <_Z9print_arrPPii+0x80>
  20213f:	8b 45 f8             	mov    -0x8(%rbp),%eax
  202142:	48 98                	cltq   
  202144:	48 8d 14 c5 00 00 00 	lea    0x0(,%rax,8),%rdx
  20214b:	00 
  20214c:	48 8b 45 e8          	mov    -0x18(%rbp),%rax
  202150:	48 01 d0             	add    %rdx,%rax
  202153:	48 8b 00             	mov    (%rax),%rax
  202156:	8b 55 fc             	mov    -0x4(%rbp),%edx
  202159:	48 63 d2             	movslq %edx,%rdx
  20215c:	48 c1 e2 02          	shl    $0x2,%rdx
  202160:	48 01 d0             	add    %rdx,%rax
  202163:	8b 00                	mov    (%rax),%eax
  202165:	89 c6                	mov    %eax,%esi
  202167:	bf 20 50 20 00       	mov    $0x205020,%edi
  20216c:	e8 9f 0a 00 00       	callq  202c10 <_ZNSolsEi@plt>
  202171:	be 20 03 20 00       	mov    $0x200320,%esi
  202176:	48 89 c7             	mov    %rax,%rdi
  202179:	e8 a2 0a 00 00       	callq  202c20 <_ZStlsISt11char_traitsIcEERSt13basic_ostreamIcT_ES5_PKc@plt>
  20217e:	83 45 fc 01          	addl   $0x1,-0x4(%rbp)
  202182:	eb b3                	jmp    202137 <_Z9print_arrPPii+0x33>
  202184:	be 30 2c 20 00       	mov    $0x202c30,%esi
  202189:	bf 20 50 20 00       	mov    $0x205020,%edi
  20218e:	e8 ad 0a 00 00       	callq  202c40 <_ZNSolsEPFRSoS_E@plt>
  202193:	83 45 f8 01          	addl   $0x1,-0x8(%rbp)
  202197:	eb 8f                	jmp    202128 <_Z9print_arrPPii+0x24>
  202199:	90                   	nop
  20219a:	c9                   	leaveq 
  20219b:	c3                   	retq   

000000000020219c <_Z10readsudokuPKcRPPii>:
  20219c:	55                   	push   %rbp
  20219d:	48 89 e5             	mov    %rsp,%rbp
  2021a0:	53                   	push   %rbx
  2021a1:	48 81 ec f8 03 00 00 	sub    $0x3f8,%rsp
  2021a8:	48 89 bd 18 fc ff ff 	mov    %rdi,-0x3e8(%rbp)
  2021af:	48 89 b5 10 fc ff ff 	mov    %rsi,-0x3f0(%rbp)
  2021b6:	89 95 0c fc ff ff    	mov    %edx,-0x3f4(%rbp)
  2021bc:	64 48 8b 04 25 28 00 	mov    %fs:0x28,%rax
  2021c3:	00 00 
  2021c5:	48 89 45 e8          	mov    %rax,-0x18(%rbp)
  2021c9:	31 c0                	xor    %eax,%eax
  2021cb:	48 8b 8d 18 fc ff ff 	mov    -0x3e8(%rbp),%rcx
  2021d2:	48 8d 85 e0 fd ff ff 	lea    -0x220(%rbp),%rax
  2021d9:	ba 08 00 00 00       	mov    $0x8,%edx
  2021de:	48 89 ce             	mov    %rcx,%rsi
  2021e1:	48 89 c7             	mov    %rax,%rdi
  2021e4:	e8 67 0a 00 00       	callq  202c50 <_ZNSt14basic_ifstreamIcSt11char_traitsIcEEC1EPKcSt13_Ios_Openmode@plt>
  2021e9:	48 8d 85 e0 fd ff ff 	lea    -0x220(%rbp),%rax
  2021f0:	48 89 c7             	mov    %rax,%rdi
  2021f3:	e8 68 0a 00 00       	callq  202c60 <_ZNSt14basic_ifstreamIcSt11char_traitsIcEE7is_openEv@plt>
  2021f8:	83 f0 01             	xor    $0x1,%eax
  2021fb:	84 c0                	test   %al,%al
  2021fd:	74 19                	je     202218 <_Z10readsudokuPKcRPPii+0x7c>
  2021ff:	be 22 03 20 00       	mov    $0x200322,%esi
  202204:	bf 40 51 20 00       	mov    $0x205140,%edi
  202209:	e8 12 0a 00 00       	callq  202c20 <_ZStlsISt11char_traitsIcEERSt13basic_ostreamIcT_ES5_PKc@plt>
  20220e:	bb 00 00 00 00       	mov    $0x0,%ebx
  202213:	e9 93 02 00 00       	jmpq   2024ab <_Z10readsudokuPKcRPPii+0x30f>
  202218:	c7 85 24 fc ff ff 00 	movl   $0x0,-0x3dc(%rbp)
  20221f:	00 00 00 
  202222:	c7 85 28 fc ff ff 00 	movl   $0x0,-0x3d8(%rbp)
  202229:	00 00 00 
  20222c:	8b 85 0c fc ff ff    	mov    -0x3f4(%rbp),%eax
  202232:	48 63 d0             	movslq %eax,%rdx
  202235:	48 b8 00 00 00 00 00 	movabs $0xfe0000000000000,%rax
  20223c:	00 e0 0f 
  20223f:	48 39 c2             	cmp    %rax,%rdx
  202242:	77 0e                	ja     202252 <_Z10readsudokuPKcRPPii+0xb6>
  202244:	8b 85 0c fc ff ff    	mov    -0x3f4(%rbp),%eax
  20224a:	48 98                	cltq   
  20224c:	48 c1 e0 03          	shl    $0x3,%rax
  202250:	eb 07                	jmp    202259 <_Z10readsudokuPKcRPPii+0xbd>
  202252:	48 c7 c0 ff ff ff ff 	mov    $0xffffffffffffffff,%rax
  202259:	48 89 c7             	mov    %rax,%rdi
  20225c:	e8 0f 0a 00 00       	callq  202c70 <_Znam@plt>
  202261:	48 89 c2             	mov    %rax,%rdx
  202264:	48 8b 85 10 fc ff ff 	mov    -0x3f0(%rbp),%rax
  20226b:	48 89 10             	mov    %rdx,(%rax)
  20226e:	c7 85 2c fc ff ff 00 	movl   $0x0,-0x3d4(%rbp)
  202275:	00 00 00 
  202278:	8b 85 2c fc ff ff    	mov    -0x3d4(%rbp),%eax
  20227e:	3b 85 0c fc ff ff    	cmp    -0x3f4(%rbp),%eax
  202284:	7d 5c                	jge    2022e2 <_Z10readsudokuPKcRPPii+0x146>
  202286:	48 8b 85 10 fc ff ff 	mov    -0x3f0(%rbp),%rax
  20228d:	48 8b 00             	mov    (%rax),%rax
  202290:	8b 95 2c fc ff ff    	mov    -0x3d4(%rbp),%edx
  202296:	48 63 d2             	movslq %edx,%rdx
  202299:	48 c1 e2 03          	shl    $0x3,%rdx
  20229d:	48 8d 1c 10          	lea    (%rax,%rdx,1),%rbx
  2022a1:	8b 85 0c fc ff ff    	mov    -0x3f4(%rbp),%eax
  2022a7:	48 63 d0             	movslq %eax,%rdx
  2022aa:	48 b8 00 00 00 00 00 	movabs $0x1fc0000000000000,%rax
  2022b1:	00 c0 1f 
  2022b4:	48 39 c2             	cmp    %rax,%rdx
  2022b7:	77 0e                	ja     2022c7 <_Z10readsudokuPKcRPPii+0x12b>
  2022b9:	8b 85 0c fc ff ff    	mov    -0x3f4(%rbp),%eax
  2022bf:	48 98                	cltq   
  2022c1:	48 c1 e0 02          	shl    $0x2,%rax
  2022c5:	eb 07                	jmp    2022ce <_Z10readsudokuPKcRPPii+0x132>
  2022c7:	48 c7 c0 ff ff ff ff 	mov    $0xffffffffffffffff,%rax
  2022ce:	48 89 c7             	mov    %rax,%rdi
  2022d1:	e8 9a 09 00 00       	callq  202c70 <_Znam@plt>
  2022d6:	48 89 03             	mov    %rax,(%rbx)
  2022d9:	83 85 2c fc ff ff 01 	addl   $0x1,-0x3d4(%rbp)
  2022e0:	eb 96                	jmp    202278 <_Z10readsudokuPKcRPPii+0xdc>
  2022e2:	48 8d 85 30 fc ff ff 	lea    -0x3d0(%rbp),%rax
  2022e9:	48 89 c7             	mov    %rax,%rdi
  2022ec:	e8 8f 09 00 00       	callq  202c80 <_ZNSt7__cxx1112basic_stringIcSt11char_traitsIcESaIcEEC1Ev@plt>
  2022f1:	48 8d 95 30 fc ff ff 	lea    -0x3d0(%rbp),%rdx
  2022f8:	48 8d 85 e0 fd ff ff 	lea    -0x220(%rbp),%rax
  2022ff:	48 89 d6             	mov    %rdx,%rsi
  202302:	48 89 c7             	mov    %rax,%rdi
  202305:	e8 86 09 00 00       	callq  202c90 <_ZSt7getlineIcSt11char_traitsIcESaIcEERSt13basic_istreamIT_T0_ES7_RNSt7__cxx1112basic_stringIS4_S5_T1_EE@plt>
  20230a:	48 8b 10             	mov    (%rax),%rdx
  20230d:	48 83 ea 18          	sub    $0x18,%rdx
  202311:	48 8b 12             	mov    (%rdx),%rdx
  202314:	48 01 d0             	add    %rdx,%rax
  202317:	48 89 c7             	mov    %rax,%rdi
  20231a:	e8 81 09 00 00       	callq  202ca0 <_ZNKSt9basic_iosIcSt11char_traitsIcEEcvPvEv@plt>
  20231f:	48 85 c0             	test   %rax,%rax
  202322:	0f 95 c0             	setne  %al
  202325:	84 c0                	test   %al,%al
  202327:	0f 84 43 01 00 00    	je     202470 <_Z10readsudokuPKcRPPii+0x2d4>
  20232d:	be 08 00 00 00       	mov    $0x8,%esi
  202332:	bf 10 00 00 00       	mov    $0x10,%edi
  202337:	e8 f3 07 00 00       	callq  202b2f <_ZStorSt13_Ios_OpenmodeS_>
  20233c:	89 c2                	mov    %eax,%edx
  20233e:	48 8d 85 50 fc ff ff 	lea    -0x3b0(%rbp),%rax
  202345:	89 d6                	mov    %edx,%esi
  202347:	48 89 c7             	mov    %rax,%rdi
  20234a:	e8 61 09 00 00       	callq  202cb0 <_ZNSt7__cxx1118basic_stringstreamIcSt11char_traitsIcESaIcEEC1ESt13_Ios_Openmode@plt>
  20234f:	48 8d 85 30 fc ff ff 	lea    -0x3d0(%rbp),%rax
  202356:	48 8d 95 50 fc ff ff 	lea    -0x3b0(%rbp),%rdx
  20235d:	48 83 c2 10          	add    $0x10,%rdx
  202361:	48 89 c6             	mov    %rax,%rsi
  202364:	48 89 d7             	mov    %rdx,%rdi
  202367:	e8 54 09 00 00       	callq  202cc0 <_ZStlsIcSt11char_traitsIcESaIcEERSt13basic_ostreamIT_T0_ES7_RKNSt7__cxx1112basic_stringIS4_S5_T1_EE@plt>
  20236c:	48 8d 95 20 fc ff ff 	lea    -0x3e0(%rbp),%rdx
  202373:	48 8d 85 50 fc ff ff 	lea    -0x3b0(%rbp),%rax
  20237a:	48 89 d6             	mov    %rdx,%rsi
  20237d:	48 89 c7             	mov    %rax,%rdi
  202380:	e8 4b 09 00 00       	callq  202cd0 <_ZNSirsERi@plt>
  202385:	48 8b 10             	mov    (%rax),%rdx
  202388:	48 83 ea 18          	sub    $0x18,%rdx
  20238c:	48 8b 12             	mov    (%rdx),%rdx
  20238f:	48 01 d0             	add    %rdx,%rax
  202392:	48 89 c7             	mov    %rax,%rdi
  202395:	e8 06 09 00 00       	callq  202ca0 <_ZNKSt9basic_iosIcSt11char_traitsIcEEcvPvEv@plt>
  20239a:	48 85 c0             	test   %rax,%rax
  20239d:	0f 95 c0             	setne  %al
  2023a0:	84 c0                	test   %al,%al
  2023a2:	74 76                	je     20241a <_Z10readsudokuPKcRPPii+0x27e>
  2023a4:	8b 85 24 fc ff ff    	mov    -0x3dc(%rbp),%eax
  2023aa:	3b 85 0c fc ff ff    	cmp    -0x3f4(%rbp),%eax
  2023b0:	7d 0e                	jge    2023c0 <_Z10readsudokuPKcRPPii+0x224>
  2023b2:	8b 85 28 fc ff ff    	mov    -0x3d8(%rbp),%eax
  2023b8:	3b 85 0c fc ff ff    	cmp    -0x3f4(%rbp),%eax
  2023be:	7c 19                	jl     2023d9 <_Z10readsudokuPKcRPPii+0x23d>
  2023c0:	b9 e0 04 20 00       	mov    $0x2004e0,%ecx
  2023c5:	ba 46 00 00 00       	mov    $0x46,%edx
  2023ca:	be 38 03 20 00       	mov    $0x200338,%esi
  2023cf:	bf 48 03 20 00       	mov    $0x200348,%edi
  2023d4:	e8 07 09 00 00       	callq  202ce0 <__assert_fail@plt>
  2023d9:	48 8b 85 10 fc ff ff 	mov    -0x3f0(%rbp),%rax
  2023e0:	48 8b 00             	mov    (%rax),%rax
  2023e3:	8b 95 24 fc ff ff    	mov    -0x3dc(%rbp),%edx
  2023e9:	48 63 d2             	movslq %edx,%rdx
  2023ec:	48 c1 e2 03          	shl    $0x3,%rdx
  2023f0:	48 01 d0             	add    %rdx,%rax
  2023f3:	48 8b 00             	mov    (%rax),%rax
  2023f6:	8b 95 28 fc ff ff    	mov    -0x3d8(%rbp),%edx
  2023fc:	48 63 d2             	movslq %edx,%rdx
  2023ff:	48 c1 e2 02          	shl    $0x2,%rdx
  202403:	48 01 c2             	add    %rax,%rdx
  202406:	8b 85 20 fc ff ff    	mov    -0x3e0(%rbp),%eax
  20240c:	89 02                	mov    %eax,(%rdx)
  20240e:	83 85 28 fc ff ff 01 	addl   $0x1,-0x3d8(%rbp)
  202415:	e9 52 ff ff ff       	jmpq   20236c <_Z10readsudokuPKcRPPii+0x1d0>
  20241a:	8b 85 28 fc ff ff    	mov    -0x3d8(%rbp),%eax
  202420:	3b 85 0c fc ff ff    	cmp    -0x3f4(%rbp),%eax
  202426:	74 19                	je     202441 <_Z10readsudokuPKcRPPii+0x2a5>
  202428:	b9 e0 04 20 00       	mov    $0x2004e0,%ecx
  20242d:	ba 4b 00 00 00       	mov    $0x4b,%edx
  202432:	be 38 03 20 00       	mov    $0x200338,%esi
  202437:	bf ac 03 20 00       	mov    $0x2003ac,%edi
  20243c:	e8 9f 08 00 00       	callq  202ce0 <__assert_fail@plt>
  202441:	e8 b0 fc ff ff       	callq  2020f6 <__app_roi_begin>
  202446:	83 85 24 fc ff ff 01 	addl   $0x1,-0x3dc(%rbp)
  20244d:	c7 85 28 fc ff ff 00 	movl   $0x0,-0x3d8(%rbp)
  202454:	00 00 00 
  202457:	e8 a1 fc ff ff       	callq  2020fd <__app_roi_end>
  20245c:	48 8d 85 50 fc ff ff 	lea    -0x3b0(%rbp),%rax
  202463:	48 89 c7             	mov    %rax,%rdi
  202466:	e8 85 08 00 00       	callq  202cf0 <_ZNSt7__cxx1118basic_stringstreamIcSt11char_traitsIcESaIcEED1Ev@plt>
  20246b:	e9 81 fe ff ff       	jmpq   2022f1 <_Z10readsudokuPKcRPPii+0x155>
  202470:	8b 85 24 fc ff ff    	mov    -0x3dc(%rbp),%eax
  202476:	3b 85 0c fc ff ff    	cmp    -0x3f4(%rbp),%eax
  20247c:	74 19                	je     202497 <_Z10readsudokuPKcRPPii+0x2fb>
  20247e:	b9 e0 04 20 00       	mov    $0x2004e0,%ecx
  202483:	ba 54 00 00 00       	mov    $0x54,%edx
  202488:	be 38 03 20 00       	mov    $0x200338,%esi
  20248d:	bf d0 03 20 00       	mov    $0x2003d0,%edi
  202492:	e8 49 08 00 00       	callq  202ce0 <__assert_fail@plt>
  202497:	bb 01 00 00 00       	mov    $0x1,%ebx
  20249c:	48 8d 85 30 fc ff ff 	lea    -0x3d0(%rbp),%rax
  2024a3:	48 89 c7             	mov    %rax,%rdi
  2024a6:	e8 55 08 00 00       	callq  202d00 <_ZNSt7__cxx1112basic_stringIcSt11char_traitsIcESaIcEED1Ev@plt>
  2024ab:	48 8d 85 e0 fd ff ff 	lea    -0x220(%rbp),%rax
  2024b2:	48 89 c7             	mov    %rax,%rdi
  2024b5:	e8 56 08 00 00       	callq  202d10 <_ZNSt14basic_ifstreamIcSt11char_traitsIcEED1Ev@plt>
  2024ba:	89 d8                	mov    %ebx,%eax
  2024bc:	48 8b 4d e8          	mov    -0x18(%rbp),%rcx
  2024c0:	64 48 33 0c 25 28 00 	xor    %fs:0x28,%rcx
  2024c7:	00 00 
  2024c9:	74 4c                	je     202517 <_Z10readsudokuPKcRPPii+0x37b>
  2024cb:	eb 45                	jmp    202512 <_Z10readsudokuPKcRPPii+0x376>
  2024cd:	48 89 c3             	mov    %rax,%rbx
  2024d0:	48 8d 85 50 fc ff ff 	lea    -0x3b0(%rbp),%rax
  2024d7:	48 89 c7             	mov    %rax,%rdi
  2024da:	e8 11 08 00 00       	callq  202cf0 <_ZNSt7__cxx1118basic_stringstreamIcSt11char_traitsIcESaIcEED1Ev@plt>
  2024df:	eb 03                	jmp    2024e4 <_Z10readsudokuPKcRPPii+0x348>
  2024e1:	48 89 c3             	mov    %rax,%rbx
  2024e4:	48 8d 85 30 fc ff ff 	lea    -0x3d0(%rbp),%rax
  2024eb:	48 89 c7             	mov    %rax,%rdi
  2024ee:	e8 0d 08 00 00       	callq  202d00 <_ZNSt7__cxx1112basic_stringIcSt11char_traitsIcESaIcEED1Ev@plt>
  2024f3:	eb 03                	jmp    2024f8 <_Z10readsudokuPKcRPPii+0x35c>
  2024f5:	48 89 c3             	mov    %rax,%rbx
  2024f8:	48 8d 85 e0 fd ff ff 	lea    -0x220(%rbp),%rax
  2024ff:	48 89 c7             	mov    %rax,%rdi
  202502:	e8 09 08 00 00       	callq  202d10 <_ZNSt14basic_ifstreamIcSt11char_traitsIcEED1Ev@plt>
  202507:	48 89 d8             	mov    %rbx,%rax
  20250a:	48 89 c7             	mov    %rax,%rdi
  20250d:	e8 0e 08 00 00       	callq  202d20 <_Unwind_Resume@plt>
  202512:	e8 19 08 00 00       	callq  202d30 <__stack_chk_fail@plt>
  202517:	48 81 c4 f8 03 00 00 	add    $0x3f8,%rsp
  20251e:	5b                   	pop    %rbx
  20251f:	5d                   	pop    %rbp
  202520:	c3                   	retq   

0000000000202521 <_Z15find_unassignedPPiiRiS1_>:
  202521:	55                   	push   %rbp
  202522:	48 89 e5             	mov    %rsp,%rbp
  202525:	48 89 7d f8          	mov    %rdi,-0x8(%rbp)
  202529:	89 75 f4             	mov    %esi,-0xc(%rbp)
  20252c:	48 89 55 e8          	mov    %rdx,-0x18(%rbp)
  202530:	48 89 4d e0          	mov    %rcx,-0x20(%rbp)
  202534:	48 8b 45 e8          	mov    -0x18(%rbp),%rax
  202538:	c7 00 00 00 00 00    	movl   $0x0,(%rax)
  20253e:	48 8b 45 e8          	mov    -0x18(%rbp),%rax
  202542:	8b 00                	mov    (%rax),%eax
  202544:	3b 45 f4             	cmp    -0xc(%rbp),%eax
  202547:	7d 6d                	jge    2025b6 <_Z15find_unassignedPPiiRiS1_+0x95>
  202549:	48 8b 45 e0          	mov    -0x20(%rbp),%rax
  20254d:	c7 00 00 00 00 00    	movl   $0x0,(%rax)
  202553:	48 8b 45 e0          	mov    -0x20(%rbp),%rax
  202557:	8b 00                	mov    (%rax),%eax
  202559:	3b 45 f4             	cmp    -0xc(%rbp),%eax
  20255c:	7d 47                	jge    2025a5 <_Z15find_unassignedPPiiRiS1_+0x84>
  20255e:	48 8b 45 e8          	mov    -0x18(%rbp),%rax
  202562:	8b 00                	mov    (%rax),%eax
  202564:	48 98                	cltq   
  202566:	48 8d 14 c5 00 00 00 	lea    0x0(,%rax,8),%rdx
  20256d:	00 
  20256e:	48 8b 45 f8          	mov    -0x8(%rbp),%rax
  202572:	48 01 d0             	add    %rdx,%rax
  202575:	48 8b 10             	mov    (%rax),%rdx
  202578:	48 8b 45 e0          	mov    -0x20(%rbp),%rax
  20257c:	8b 00                	mov    (%rax),%eax
  20257e:	48 98                	cltq   
  202580:	48 c1 e0 02          	shl    $0x2,%rax
  202584:	48 01 d0             	add    %rdx,%rax
  202587:	8b 00                	mov    (%rax),%eax
  202589:	85 c0                	test   %eax,%eax
  20258b:	75 07                	jne    202594 <_Z15find_unassignedPPiiRiS1_+0x73>
  20258d:	b8 01 00 00 00       	mov    $0x1,%eax
  202592:	eb 27                	jmp    2025bb <_Z15find_unassignedPPiiRiS1_+0x9a>
  202594:	48 8b 45 e0          	mov    -0x20(%rbp),%rax
  202598:	8b 00                	mov    (%rax),%eax
  20259a:	8d 50 01             	lea    0x1(%rax),%edx
  20259d:	48 8b 45 e0          	mov    -0x20(%rbp),%rax
  2025a1:	89 10                	mov    %edx,(%rax)
  2025a3:	eb ae                	jmp    202553 <_Z15find_unassignedPPiiRiS1_+0x32>
  2025a5:	48 8b 45 e8          	mov    -0x18(%rbp),%rax
  2025a9:	8b 00                	mov    (%rax),%eax
  2025ab:	8d 50 01             	lea    0x1(%rax),%edx
  2025ae:	48 8b 45 e8          	mov    -0x18(%rbp),%rax
  2025b2:	89 10                	mov    %edx,(%rax)
  2025b4:	eb 88                	jmp    20253e <_Z15find_unassignedPPiiRiS1_+0x1d>
  2025b6:	b8 00 00 00 00       	mov    $0x0,%eax
  2025bb:	5d                   	pop    %rbp
  2025bc:	c3                   	retq   

00000000002025bd <_Z11is_row_safePPiiii>:
  2025bd:	55                   	push   %rbp
  2025be:	48 89 e5             	mov    %rsp,%rbp
  2025c1:	48 89 7d e8          	mov    %rdi,-0x18(%rbp)
  2025c5:	89 75 e4             	mov    %esi,-0x1c(%rbp)
  2025c8:	89 55 e0             	mov    %edx,-0x20(%rbp)
  2025cb:	89 4d dc             	mov    %ecx,-0x24(%rbp)
  2025ce:	c7 45 fc 00 00 00 00 	movl   $0x0,-0x4(%rbp)
  2025d5:	c7 45 fc 00 00 00 00 	movl   $0x0,-0x4(%rbp)
  2025dc:	8b 45 fc             	mov    -0x4(%rbp),%eax
  2025df:	3b 45 e4             	cmp    -0x1c(%rbp),%eax
  2025e2:	7d 38                	jge    20261c <_Z11is_row_safePPiiii+0x5f>
  2025e4:	8b 45 dc             	mov    -0x24(%rbp),%eax
  2025e7:	48 98                	cltq   
  2025e9:	48 8d 14 c5 00 00 00 	lea    0x0(,%rax,8),%rdx
  2025f0:	00 
  2025f1:	48 8b 45 e8          	mov    -0x18(%rbp),%rax
  2025f5:	48 01 d0             	add    %rdx,%rax
  2025f8:	48 8b 00             	mov    (%rax),%rax
  2025fb:	8b 55 fc             	mov    -0x4(%rbp),%edx
  2025fe:	48 63 d2             	movslq %edx,%rdx
  202601:	48 c1 e2 02          	shl    $0x2,%rdx
  202605:	48 01 d0             	add    %rdx,%rax
  202608:	8b 00                	mov    (%rax),%eax
  20260a:	3b 45 e0             	cmp    -0x20(%rbp),%eax
  20260d:	75 07                	jne    202616 <_Z11is_row_safePPiiii+0x59>
  20260f:	b8 00 00 00 00       	mov    $0x0,%eax
  202614:	eb 0b                	jmp    202621 <_Z11is_row_safePPiiii+0x64>
  202616:	83 45 fc 01          	addl   $0x1,-0x4(%rbp)
  20261a:	eb c0                	jmp    2025dc <_Z11is_row_safePPiiii+0x1f>
  20261c:	b8 01 00 00 00       	mov    $0x1,%eax
  202621:	5d                   	pop    %rbp
  202622:	c3                   	retq   

0000000000202623 <_Z11is_col_safePPiiii>:
  202623:	55                   	push   %rbp
  202624:	48 89 e5             	mov    %rsp,%rbp
  202627:	48 89 7d e8          	mov    %rdi,-0x18(%rbp)
  20262b:	89 75 e4             	mov    %esi,-0x1c(%rbp)
  20262e:	89 55 e0             	mov    %edx,-0x20(%rbp)
  202631:	89 4d dc             	mov    %ecx,-0x24(%rbp)
  202634:	c7 45 fc 00 00 00 00 	movl   $0x0,-0x4(%rbp)
  20263b:	c7 45 fc 00 00 00 00 	movl   $0x0,-0x4(%rbp)
  202642:	8b 45 fc             	mov    -0x4(%rbp),%eax
  202645:	3b 45 e4             	cmp    -0x1c(%rbp),%eax
  202648:	7d 38                	jge    202682 <_Z11is_col_safePPiiii+0x5f>
  20264a:	8b 45 fc             	mov    -0x4(%rbp),%eax
  20264d:	48 98                	cltq   
  20264f:	48 8d 14 c5 00 00 00 	lea    0x0(,%rax,8),%rdx
  202656:	00 
  202657:	48 8b 45 e8          	mov    -0x18(%rbp),%rax
  20265b:	48 01 d0             	add    %rdx,%rax
  20265e:	48 8b 00             	mov    (%rax),%rax
  202661:	8b 55 dc             	mov    -0x24(%rbp),%edx
  202664:	48 63 d2             	movslq %edx,%rdx
  202667:	48 c1 e2 02          	shl    $0x2,%rdx
  20266b:	48 01 d0             	add    %rdx,%rax
  20266e:	8b 00                	mov    (%rax),%eax
  202670:	3b 45 e0             	cmp    -0x20(%rbp),%eax
  202673:	75 07                	jne    20267c <_Z11is_col_safePPiiii+0x59>
  202675:	b8 00 00 00 00       	mov    $0x0,%eax
  20267a:	eb 0b                	jmp    202687 <_Z11is_col_safePPiiii+0x64>
  20267c:	83 45 fc 01          	addl   $0x1,-0x4(%rbp)
  202680:	eb c0                	jmp    202642 <_Z11is_col_safePPiiii+0x1f>
  202682:	b8 01 00 00 00       	mov    $0x1,%eax
  202687:	5d                   	pop    %rbp
  202688:	c3                   	retq   

0000000000202689 <_Z11is_box_safePPiiiii>:
  202689:	55                   	push   %rbp
  20268a:	48 89 e5             	mov    %rsp,%rbp
  20268d:	48 83 ec 40          	sub    $0x40,%rsp
  202691:	48 89 7d d8          	mov    %rdi,-0x28(%rbp)
  202695:	89 75 d4             	mov    %esi,-0x2c(%rbp)
  202698:	89 55 d0             	mov    %edx,-0x30(%rbp)
  20269b:	89 4d cc             	mov    %ecx,-0x34(%rbp)
  20269e:	44 89 45 c8          	mov    %r8d,-0x38(%rbp)
  2026a2:	66 0f ef c0          	pxor   %xmm0,%xmm0
  2026a6:	f2 0f 2a 45 d4       	cvtsi2sdl -0x2c(%rbp),%xmm0
  2026ab:	e8 90 06 00 00       	callq  202d40 <sqrt@plt>
  2026b0:	f2 0f 2c c0          	cvttsd2si %xmm0,%eax
  2026b4:	89 45 ec             	mov    %eax,-0x14(%rbp)
  2026b7:	8b 45 cc             	mov    -0x34(%rbp),%eax
  2026ba:	99                   	cltd   
  2026bb:	f7 7d ec             	idivl  -0x14(%rbp)
  2026be:	0f af 45 ec          	imul   -0x14(%rbp),%eax
  2026c2:	89 45 f0             	mov    %eax,-0x10(%rbp)
  2026c5:	8b 55 f0             	mov    -0x10(%rbp),%edx
  2026c8:	8b 45 ec             	mov    -0x14(%rbp),%eax
  2026cb:	01 d0                	add    %edx,%eax
  2026cd:	89 45 f4             	mov    %eax,-0xc(%rbp)
  2026d0:	8b 45 c8             	mov    -0x38(%rbp),%eax
  2026d3:	99                   	cltd   
  2026d4:	f7 7d ec             	idivl  -0x14(%rbp)
  2026d7:	0f af 45 ec          	imul   -0x14(%rbp),%eax
  2026db:	89 45 f8             	mov    %eax,-0x8(%rbp)
  2026de:	8b 55 f8             	mov    -0x8(%rbp),%edx
  2026e1:	8b 45 ec             	mov    -0x14(%rbp),%eax
  2026e4:	01 d0                	add    %edx,%eax
  2026e6:	89 45 fc             	mov    %eax,-0x4(%rbp)
  2026e9:	8b 45 f0             	mov    -0x10(%rbp),%eax
  2026ec:	89 45 e4             	mov    %eax,-0x1c(%rbp)
  2026ef:	8b 45 f8             	mov    -0x8(%rbp),%eax
  2026f2:	89 45 e8             	mov    %eax,-0x18(%rbp)
  2026f5:	8b 45 f0             	mov    -0x10(%rbp),%eax
  2026f8:	89 45 e4             	mov    %eax,-0x1c(%rbp)
  2026fb:	8b 45 e4             	mov    -0x1c(%rbp),%eax
  2026fe:	3b 45 f4             	cmp    -0xc(%rbp),%eax
  202701:	7d 4c                	jge    20274f <_Z11is_box_safePPiiiii+0xc6>
  202703:	8b 45 f8             	mov    -0x8(%rbp),%eax
  202706:	89 45 e8             	mov    %eax,-0x18(%rbp)
  202709:	8b 45 e8             	mov    -0x18(%rbp),%eax
  20270c:	3b 45 fc             	cmp    -0x4(%rbp),%eax
  20270f:	7d 38                	jge    202749 <_Z11is_box_safePPiiiii+0xc0>
  202711:	8b 45 e4             	mov    -0x1c(%rbp),%eax
  202714:	48 98                	cltq   
  202716:	48 8d 14 c5 00 00 00 	lea    0x0(,%rax,8),%rdx
  20271d:	00 
  20271e:	48 8b 45 d8          	mov    -0x28(%rbp),%rax
  202722:	48 01 d0             	add    %rdx,%rax
  202725:	48 8b 00             	mov    (%rax),%rax
  202728:	8b 55 e8             	mov    -0x18(%rbp),%edx
  20272b:	48 63 d2             	movslq %edx,%rdx
  20272e:	48 c1 e2 02          	shl    $0x2,%rdx
  202732:	48 01 d0             	add    %rdx,%rax
  202735:	8b 00                	mov    (%rax),%eax
  202737:	3b 45 d0             	cmp    -0x30(%rbp),%eax
  20273a:	75 07                	jne    202743 <_Z11is_box_safePPiiiii+0xba>
  20273c:	b8 00 00 00 00       	mov    $0x0,%eax
  202741:	eb 11                	jmp    202754 <_Z11is_box_safePPiiiii+0xcb>
  202743:	83 45 e8 01          	addl   $0x1,-0x18(%rbp)
  202747:	eb c0                	jmp    202709 <_Z11is_box_safePPiiiii+0x80>
  202749:	83 45 e4 01          	addl   $0x1,-0x1c(%rbp)
  20274d:	eb ac                	jmp    2026fb <_Z11is_box_safePPiiiii+0x72>
  20274f:	b8 01 00 00 00       	mov    $0x1,%eax
  202754:	c9                   	leaveq 
  202755:	c3                   	retq   

0000000000202756 <_Z7is_safePPiiiii>:
  202756:	55                   	push   %rbp
  202757:	48 89 e5             	mov    %rsp,%rbp
  20275a:	48 83 ec 20          	sub    $0x20,%rsp
  20275e:	48 89 7d f8          	mov    %rdi,-0x8(%rbp)
  202762:	89 75 f4             	mov    %esi,-0xc(%rbp)
  202765:	89 55 f0             	mov    %edx,-0x10(%rbp)
  202768:	89 4d ec             	mov    %ecx,-0x14(%rbp)
  20276b:	44 89 45 e8          	mov    %r8d,-0x18(%rbp)
  20276f:	8b 7d e8             	mov    -0x18(%rbp),%edi
  202772:	8b 4d ec             	mov    -0x14(%rbp),%ecx
  202775:	8b 55 f0             	mov    -0x10(%rbp),%edx
  202778:	8b 75 f4             	mov    -0xc(%rbp),%esi
  20277b:	48 8b 45 f8          	mov    -0x8(%rbp),%rax
  20277f:	41 89 f8             	mov    %edi,%r8d
  202782:	48 89 c7             	mov    %rax,%rdi
  202785:	e8 ff fe ff ff       	callq  202689 <_Z11is_box_safePPiiiii>
  20278a:	84 c0                	test   %al,%al
  20278c:	74 39                	je     2027c7 <_Z7is_safePPiiiii+0x71>
  20278e:	8b 4d e8             	mov    -0x18(%rbp),%ecx
  202791:	8b 55 f0             	mov    -0x10(%rbp),%edx
  202794:	8b 75 f4             	mov    -0xc(%rbp),%esi
  202797:	48 8b 45 f8          	mov    -0x8(%rbp),%rax
  20279b:	48 89 c7             	mov    %rax,%rdi
  20279e:	e8 80 fe ff ff       	callq  202623 <_Z11is_col_safePPiiii>
  2027a3:	84 c0                	test   %al,%al
  2027a5:	74 20                	je     2027c7 <_Z7is_safePPiiiii+0x71>
  2027a7:	8b 4d ec             	mov    -0x14(%rbp),%ecx
  2027aa:	8b 55 f0             	mov    -0x10(%rbp),%edx
  2027ad:	8b 75 f4             	mov    -0xc(%rbp),%esi
  2027b0:	48 8b 45 f8          	mov    -0x8(%rbp),%rax
  2027b4:	48 89 c7             	mov    %rax,%rdi
  2027b7:	e8 01 fe ff ff       	callq  2025bd <_Z11is_row_safePPiiii>
  2027bc:	84 c0                	test   %al,%al
  2027be:	74 07                	je     2027c7 <_Z7is_safePPiiiii+0x71>
  2027c0:	b8 01 00 00 00       	mov    $0x1,%eax
  2027c5:	eb 05                	jmp    2027cc <_Z7is_safePPiiiii+0x76>
  2027c7:	b8 00 00 00 00       	mov    $0x0,%eax
  2027cc:	84 c0                	test   %al,%al
  2027ce:	74 07                	je     2027d7 <_Z7is_safePPiiiii+0x81>
  2027d0:	b8 01 00 00 00       	mov    $0x1,%eax
  2027d5:	eb 05                	jmp    2027dc <_Z7is_safePPiiiii+0x86>
  2027d7:	b8 00 00 00 00       	mov    $0x0,%eax
  2027dc:	c9                   	leaveq 
  2027dd:	c3                   	retq   

00000000002027de <_Z13sudoku_solverPPii>:
  2027de:	55                   	push   %rbp
  2027df:	48 89 e5             	mov    %rsp,%rbp
  2027e2:	48 83 ec 30          	sub    $0x30,%rsp
  2027e6:	48 89 7d d8          	mov    %rdi,-0x28(%rbp)
  2027ea:	89 75 d4             	mov    %esi,-0x2c(%rbp)
  2027ed:	64 48 8b 04 25 28 00 	mov    %fs:0x28,%rax
  2027f4:	00 00 
  2027f6:	48 89 45 f8          	mov    %rax,-0x8(%rbp)
  2027fa:	31 c0                	xor    %eax,%eax
  2027fc:	c7 45 ec 00 00 00 00 	movl   $0x0,-0x14(%rbp)
  202803:	c7 45 f0 00 00 00 00 	movl   $0x0,-0x10(%rbp)
  20280a:	48 8d 4d f0          	lea    -0x10(%rbp),%rcx
  20280e:	48 8d 55 ec          	lea    -0x14(%rbp),%rdx
  202812:	8b 75 d4             	mov    -0x2c(%rbp),%esi
  202815:	48 8b 45 d8          	mov    -0x28(%rbp),%rax
  202819:	48 89 c7             	mov    %rax,%rdi
  20281c:	e8 00 fd ff ff       	callq  202521 <_Z15find_unassignedPPiiRiS1_>
  202821:	84 c0                	test   %al,%al
  202823:	0f 84 b2 00 00 00    	je     2028db <_Z13sudoku_solverPPii+0xfd>
  202829:	c7 45 f4 01 00 00 00 	movl   $0x1,-0xc(%rbp)
  202830:	8b 45 f4             	mov    -0xc(%rbp),%eax
  202833:	3b 45 d4             	cmp    -0x2c(%rbp),%eax
  202836:	0f 8f 98 00 00 00    	jg     2028d4 <_Z13sudoku_solverPPii+0xf6>
  20283c:	8b 7d f0             	mov    -0x10(%rbp),%edi
  20283f:	8b 4d ec             	mov    -0x14(%rbp),%ecx
  202842:	8b 55 f4             	mov    -0xc(%rbp),%edx
  202845:	8b 75 d4             	mov    -0x2c(%rbp),%esi
  202848:	48 8b 45 d8          	mov    -0x28(%rbp),%rax
  20284c:	41 89 f8             	mov    %edi,%r8d
  20284f:	48 89 c7             	mov    %rax,%rdi
  202852:	e8 ff fe ff ff       	callq  202756 <_Z7is_safePPiiiii>
  202857:	84 c0                	test   %al,%al
  202859:	74 70                	je     2028cb <_Z13sudoku_solverPPii+0xed>
  20285b:	8b 45 ec             	mov    -0x14(%rbp),%eax
  20285e:	48 98                	cltq   
  202860:	48 8d 14 c5 00 00 00 	lea    0x0(,%rax,8),%rdx
  202867:	00 
  202868:	48 8b 45 d8          	mov    -0x28(%rbp),%rax
  20286c:	48 01 d0             	add    %rdx,%rax
  20286f:	48 8b 00             	mov    (%rax),%rax
  202872:	8b 55 f0             	mov    -0x10(%rbp),%edx
  202875:	48 63 d2             	movslq %edx,%rdx
  202878:	48 c1 e2 02          	shl    $0x2,%rdx
  20287c:	48 01 c2             	add    %rax,%rdx
  20287f:	8b 45 f4             	mov    -0xc(%rbp),%eax
  202882:	89 02                	mov    %eax,(%rdx)
  202884:	8b 55 d4             	mov    -0x2c(%rbp),%edx
  202887:	48 8b 45 d8          	mov    -0x28(%rbp),%rax
  20288b:	89 d6                	mov    %edx,%esi
  20288d:	48 89 c7             	mov    %rax,%rdi
  202890:	e8 49 ff ff ff       	callq  2027de <_Z13sudoku_solverPPii>
  202895:	84 c0                	test   %al,%al
  202897:	74 07                	je     2028a0 <_Z13sudoku_solverPPii+0xc2>
  202899:	b8 01 00 00 00       	mov    $0x1,%eax
  20289e:	eb 6d                	jmp    20290d <_Z13sudoku_solverPPii+0x12f>
  2028a0:	8b 45 ec             	mov    -0x14(%rbp),%eax
  2028a3:	48 98                	cltq   
  2028a5:	48 8d 14 c5 00 00 00 	lea    0x0(,%rax,8),%rdx
  2028ac:	00 
  2028ad:	48 8b 45 d8          	mov    -0x28(%rbp),%rax
  2028b1:	48 01 d0             	add    %rdx,%rax
  2028b4:	48 8b 00             	mov    (%rax),%rax
  2028b7:	8b 55 f0             	mov    -0x10(%rbp),%edx
  2028ba:	48 63 d2             	movslq %edx,%rdx
  2028bd:	48 c1 e2 02          	shl    $0x2,%rdx
  2028c1:	48 01 d0             	add    %rdx,%rax
  2028c4:	c7 00 00 00 00 00    	movl   $0x0,(%rax)
  2028ca:	90                   	nop
  2028cb:	83 45 f4 01          	addl   $0x1,-0xc(%rbp)
  2028cf:	e9 5c ff ff ff       	jmpq   202830 <_Z13sudoku_solverPPii+0x52>
  2028d4:	b8 00 00 00 00       	mov    $0x0,%eax
  2028d9:	eb 32                	jmp    20290d <_Z13sudoku_solverPPii+0x12f>
  2028db:	be ef 03 20 00       	mov    $0x2003ef,%esi
  2028e0:	bf 20 50 20 00       	mov    $0x205020,%edi
  2028e5:	e8 36 03 00 00       	callq  202c20 <_ZStlsISt11char_traitsIcEERSt13basic_ostreamIcT_ES5_PKc@plt>
  2028ea:	be 30 2c 20 00       	mov    $0x202c30,%esi
  2028ef:	48 89 c7             	mov    %rax,%rdi
  2028f2:	e8 49 03 00 00       	callq  202c40 <_ZNSolsEPFRSoS_E@plt>
  2028f7:	8b 55 d4             	mov    -0x2c(%rbp),%edx
  2028fa:	48 8b 45 d8          	mov    -0x28(%rbp),%rax
  2028fe:	89 d6                	mov    %edx,%esi
  202900:	48 89 c7             	mov    %rax,%rdi
  202903:	e8 fc f7 ff ff       	callq  202104 <_Z9print_arrPPii>
  202908:	b8 01 00 00 00       	mov    $0x1,%eax
  20290d:	48 8b 4d f8          	mov    -0x8(%rbp),%rcx
  202911:	64 48 33 0c 25 28 00 	xor    %fs:0x28,%rcx
  202918:	00 00 
  20291a:	74 05                	je     202921 <_Z13sudoku_solverPPii+0x143>
  20291c:	e8 0f 04 00 00       	callq  202d30 <__stack_chk_fail@plt>
  202921:	c9                   	leaveq 
  202922:	c3                   	retq   

0000000000202923 <main>:
  202923:	55                   	push   %rbp
  202924:	48 89 e5             	mov    %rsp,%rbp
  202927:	53                   	push   %rbx
  202928:	48 83 ec 48          	sub    $0x48,%rsp
  20292c:	89 7d bc             	mov    %edi,-0x44(%rbp)
  20292f:	48 89 75 b0          	mov    %rsi,-0x50(%rbp)
  202933:	64 48 8b 04 25 28 00 	mov    %fs:0x28,%rax
  20293a:	00 00 
  20293c:	48 89 45 e8          	mov    %rax,-0x18(%rbp)
  202940:	31 c0                	xor    %eax,%eax
  202942:	be fd 03 20 00       	mov    $0x2003fd,%esi
  202947:	bf 20 50 20 00       	mov    $0x205020,%edi
  20294c:	e8 cf 02 00 00       	callq  202c20 <_ZStlsISt11char_traitsIcEERSt13basic_ostreamIcT_ES5_PKc@plt>
  202951:	48 89 c2             	mov    %rax,%rdx
  202954:	8b 45 bc             	mov    -0x44(%rbp),%eax
  202957:	89 c6                	mov    %eax,%esi
  202959:	48 89 d7             	mov    %rdx,%rdi
  20295c:	e8 af 02 00 00       	callq  202c10 <_ZNSolsEi@plt>
  202961:	be 30 2c 20 00       	mov    $0x202c30,%esi
  202966:	48 89 c7             	mov    %rax,%rdi
  202969:	e8 d2 02 00 00       	callq  202c40 <_ZNSolsEPFRSoS_E@plt>
  20296e:	83 7d bc 03          	cmpl   $0x3,-0x44(%rbp)
  202972:	74 19                	je     20298d <main+0x6a>
  202974:	b9 10 05 20 00       	mov    $0x200510,%ecx
  202979:	ba e3 00 00 00       	mov    $0xe3,%edx
  20297e:	be 38 03 20 00       	mov    $0x200338,%esi
  202983:	bf 08 04 20 00       	mov    $0x200408,%edi
  202988:	e8 53 03 00 00       	callq  202ce0 <__assert_fail@plt>
  20298d:	48 8b 45 b0          	mov    -0x50(%rbp),%rax
  202991:	48 83 c0 08          	add    $0x8,%rax
  202995:	48 8b 18             	mov    (%rax),%rbx
  202998:	be 5f 04 20 00       	mov    $0x20045f,%esi
  20299d:	bf 20 50 20 00       	mov    $0x205020,%edi
  2029a2:	e8 79 02 00 00       	callq  202c20 <_ZStlsISt11char_traitsIcEERSt13basic_ostreamIcT_ES5_PKc@plt>
  2029a7:	48 89 de             	mov    %rbx,%rsi
  2029aa:	48 89 c7             	mov    %rax,%rdi
  2029ad:	e8 6e 02 00 00       	callq  202c20 <_ZStlsISt11char_traitsIcEERSt13basic_ostreamIcT_ES5_PKc@plt>
  2029b2:	be 30 2c 20 00       	mov    $0x202c30,%esi
  2029b7:	48 89 c7             	mov    %rax,%rdi
  2029ba:	e8 81 02 00 00       	callq  202c40 <_ZNSolsEPFRSoS_E@plt>
  2029bf:	48 8b 45 b0          	mov    -0x50(%rbp),%rax
  2029c3:	48 83 c0 10          	add    $0x10,%rax
  2029c7:	48 8b 18             	mov    (%rax),%rbx
  2029ca:	be 70 04 20 00       	mov    $0x200470,%esi
  2029cf:	bf 20 50 20 00       	mov    $0x205020,%edi
  2029d4:	e8 47 02 00 00       	callq  202c20 <_ZStlsISt11char_traitsIcEERSt13basic_ostreamIcT_ES5_PKc@plt>
  2029d9:	48 89 de             	mov    %rbx,%rsi
  2029dc:	48 89 c7             	mov    %rax,%rdi
  2029df:	e8 3c 02 00 00       	callq  202c20 <_ZStlsISt11char_traitsIcEERSt13basic_ostreamIcT_ES5_PKc@plt>
  2029e4:	be 30 2c 20 00       	mov    $0x202c30,%esi
  2029e9:	48 89 c7             	mov    %rax,%rdi
  2029ec:	e8 4f 02 00 00       	callq  202c40 <_ZNSolsEPFRSoS_E@plt>
  2029f1:	48 8b 45 b0          	mov    -0x50(%rbp),%rax
  2029f5:	48 83 c0 08          	add    $0x8,%rax
  2029f9:	48 8b 00             	mov    (%rax),%rax
  2029fc:	48 89 c7             	mov    %rax,%rdi
  2029ff:	e8 4c 03 00 00       	callq  202d50 <atoi@plt>
  202a04:	89 45 cc             	mov    %eax,-0x34(%rbp)
  202a07:	66 0f ef c0          	pxor   %xmm0,%xmm0
  202a0b:	f2 0f 2a 45 cc       	cvtsi2sdl -0x34(%rbp),%xmm0
  202a10:	e8 2b 03 00 00       	callq  202d40 <sqrt@plt>
  202a15:	f2 0f 2c c0          	cvttsd2si %xmm0,%eax
  202a19:	89 45 d0             	mov    %eax,-0x30(%rbp)
  202a1c:	66 0f ef c0          	pxor   %xmm0,%xmm0
  202a20:	f2 0f 2a 45 cc       	cvtsi2sdl -0x34(%rbp),%xmm0
  202a25:	e8 16 03 00 00       	callq  202d40 <sqrt@plt>
  202a2a:	f2 0f 5a c8          	cvtsd2ss %xmm0,%xmm1
  202a2e:	f3 0f 11 4d d4       	movss  %xmm1,-0x2c(%rbp)
  202a33:	66 0f ef c0          	pxor   %xmm0,%xmm0
  202a37:	f3 0f 2a 45 d0       	cvtsi2ssl -0x30(%rbp),%xmm0
  202a3c:	0f 2e 45 d4          	ucomiss -0x2c(%rbp),%xmm0
  202a40:	7a 06                	jp     202a48 <main+0x125>
  202a42:	0f 2e 45 d4          	ucomiss -0x2c(%rbp),%xmm0
  202a46:	74 19                	je     202a61 <main+0x13e>
  202a48:	b9 10 05 20 00       	mov    $0x200510,%ecx
  202a4d:	ba eb 00 00 00       	mov    $0xeb,%edx
  202a52:	be 38 03 20 00       	mov    $0x200338,%esi
  202a57:	bf 80 04 20 00       	mov    $0x200480,%edi
  202a5c:	e8 7f 02 00 00       	callq  202ce0 <__assert_fail@plt>
  202a61:	48 c7 45 d8 00 00 00 	movq   $0x0,-0x28(%rbp)
  202a68:	00 
  202a69:	48 8b 45 b0          	mov    -0x50(%rbp),%rax
  202a6d:	48 8b 40 10          	mov    0x10(%rax),%rax
  202a71:	48 89 45 e0          	mov    %rax,-0x20(%rbp)
  202a75:	8b 55 cc             	mov    -0x34(%rbp),%edx
  202a78:	48 8d 4d d8          	lea    -0x28(%rbp),%rcx
  202a7c:	48 8b 45 e0          	mov    -0x20(%rbp),%rax
  202a80:	48 89 ce             	mov    %rcx,%rsi
  202a83:	48 89 c7             	mov    %rax,%rdi
  202a86:	e8 11 f7 ff ff       	callq  20219c <_Z10readsudokuPKcRPPii>
  202a8b:	be c2 04 20 00       	mov    $0x2004c2,%esi
  202a90:	bf 20 50 20 00       	mov    $0x205020,%edi
  202a95:	e8 86 01 00 00       	callq  202c20 <_ZStlsISt11char_traitsIcEERSt13basic_ostreamIcT_ES5_PKc@plt>
  202a9a:	48 8b 45 d8          	mov    -0x28(%rbp),%rax
  202a9e:	8b 55 cc             	mov    -0x34(%rbp),%edx
  202aa1:	89 d6                	mov    %edx,%esi
  202aa3:	48 89 c7             	mov    %rax,%rdi
  202aa6:	e8 59 f6 ff ff       	callq  202104 <_Z9print_arrPPii>
  202aab:	48 8b 45 d8          	mov    -0x28(%rbp),%rax
  202aaf:	8b 55 cc             	mov    -0x34(%rbp),%edx
  202ab2:	89 d6                	mov    %edx,%esi
  202ab4:	48 89 c7             	mov    %rax,%rdi
  202ab7:	e8 22 fd ff ff       	callq  2027de <_Z13sudoku_solverPPii>
  202abc:	b8 00 00 00 00       	mov    $0x0,%eax
  202ac1:	48 8b 4d e8          	mov    -0x18(%rbp),%rcx
  202ac5:	64 48 33 0c 25 28 00 	xor    %fs:0x28,%rcx
  202acc:	00 00 
  202ace:	74 05                	je     202ad5 <main+0x1b2>
  202ad0:	e8 5b 02 00 00       	callq  202d30 <__stack_chk_fail@plt>
  202ad5:	48 83 c4 48          	add    $0x48,%rsp
  202ad9:	5b                   	pop    %rbx
  202ada:	5d                   	pop    %rbp
  202adb:	c3                   	retq   

0000000000202adc <_Z41__static_initialization_and_destruction_0ii>:
  202adc:	55                   	push   %rbp
  202add:	48 89 e5             	mov    %rsp,%rbp
  202ae0:	48 83 ec 10          	sub    $0x10,%rsp
  202ae4:	89 7d fc             	mov    %edi,-0x4(%rbp)
  202ae7:	89 75 f8             	mov    %esi,-0x8(%rbp)
  202aea:	83 7d fc 01          	cmpl   $0x1,-0x4(%rbp)
  202aee:	75 27                	jne    202b17 <_Z41__static_initialization_and_destruction_0ii+0x3b>
  202af0:	81 7d f8 ff ff 00 00 	cmpl   $0xffff,-0x8(%rbp)
  202af7:	75 1e                	jne    202b17 <_Z41__static_initialization_and_destruction_0ii+0x3b>
  202af9:	bf 01 50 20 00       	mov    $0x205001,%edi
  202afe:	e8 5d 02 00 00       	callq  202d60 <_ZNSt8ios_base4InitC1Ev@plt>
  202b03:	ba 08 30 20 00       	mov    $0x203008,%edx
  202b08:	be 01 50 20 00       	mov    $0x205001,%esi
  202b0d:	bf 70 2d 20 00       	mov    $0x202d70,%edi
  202b12:	e8 69 02 00 00       	callq  202d80 <__cxa_atexit@plt>
  202b17:	90                   	nop
  202b18:	c9                   	leaveq 
  202b19:	c3                   	retq   

0000000000202b1a <_GLOBAL__sub_I___app_roi_begin>:
  202b1a:	55                   	push   %rbp
  202b1b:	48 89 e5             	mov    %rsp,%rbp
  202b1e:	be ff ff 00 00       	mov    $0xffff,%esi
  202b23:	bf 01 00 00 00       	mov    $0x1,%edi
  202b28:	e8 af ff ff ff       	callq  202adc <_Z41__static_initialization_and_destruction_0ii>
  202b2d:	5d                   	pop    %rbp
  202b2e:	c3                   	retq   

0000000000202b2f <_ZStorSt13_Ios_OpenmodeS_>:
  202b2f:	55                   	push   %rbp
  202b30:	48 89 e5             	mov    %rsp,%rbp
  202b33:	89 7d fc             	mov    %edi,-0x4(%rbp)
  202b36:	89 75 f8             	mov    %esi,-0x8(%rbp)
  202b39:	8b 45 fc             	mov    -0x4(%rbp),%eax
  202b3c:	0b 45 f8             	or     -0x8(%rbp),%eax
  202b3f:	5d                   	pop    %rbp
  202b40:	c3                   	retq   
  202b41:	cc                   	int3   
  202b42:	cc                   	int3   
  202b43:	cc                   	int3   
  202b44:	cc                   	int3   
  202b45:	cc                   	int3   
  202b46:	cc                   	int3   
  202b47:	cc                   	int3   
  202b48:	cc                   	int3   
  202b49:	cc                   	int3   
  202b4a:	cc                   	int3   
  202b4b:	cc                   	int3   
  202b4c:	cc                   	int3   
  202b4d:	cc                   	int3   
  202b4e:	cc                   	int3   
  202b4f:	cc                   	int3   

0000000000202b50 <__libc_csu_init>:
  202b50:	41 57                	push   %r15
  202b52:	41 56                	push   %r14
  202b54:	41 89 ff             	mov    %edi,%r15d
  202b57:	41 55                	push   %r13
  202b59:	41 54                	push   %r12
  202b5b:	4c 8d 25 ae 14 00 00 	lea    0x14ae(%rip),%r12        # 204010 <__frame_dummy_init_array_entry>
  202b62:	55                   	push   %rbp
  202b63:	48 8d 2d b6 14 00 00 	lea    0x14b6(%rip),%rbp        # 204020 <__init_array_end>
  202b6a:	53                   	push   %rbx
  202b6b:	49 89 f6             	mov    %rsi,%r14
  202b6e:	49 89 d5             	mov    %rdx,%r13
  202b71:	4c 29 e5             	sub    %r12,%rbp
  202b74:	48 83 ec 08          	sub    $0x8,%rsp
  202b78:	48 c1 fd 03          	sar    $0x3,%rbp
  202b7c:	e8 43 00 00 00       	callq  202bc4 <_init>
  202b81:	48 85 ed             	test   %rbp,%rbp
  202b84:	74 20                	je     202ba6 <__libc_csu_init+0x56>
  202b86:	31 db                	xor    %ebx,%ebx
  202b88:	0f 1f 84 00 00 00 00 	nopl   0x0(%rax,%rax,1)
  202b8f:	00 
  202b90:	4c 89 ea             	mov    %r13,%rdx
  202b93:	4c 89 f6             	mov    %r14,%rsi
  202b96:	44 89 ff             	mov    %r15d,%edi
  202b99:	41 ff 14 dc          	callq  *(%r12,%rbx,8)
  202b9d:	48 83 c3 01          	add    $0x1,%rbx
  202ba1:	48 39 eb             	cmp    %rbp,%rbx
  202ba4:	75 ea                	jne    202b90 <__libc_csu_init+0x40>
  202ba6:	48 83 c4 08          	add    $0x8,%rsp
  202baa:	5b                   	pop    %rbx
  202bab:	5d                   	pop    %rbp
  202bac:	41 5c                	pop    %r12
  202bae:	41 5d                	pop    %r13
  202bb0:	41 5e                	pop    %r14
  202bb2:	41 5f                	pop    %r15
  202bb4:	c3                   	retq   
  202bb5:	90                   	nop
  202bb6:	66 2e 0f 1f 84 00 00 	nopw   %cs:0x0(%rax,%rax,1)
  202bbd:	00 00 00 

0000000000202bc0 <__libc_csu_fini>:
  202bc0:	f3 c3                	repz retq 

Disassembly of section .init:

0000000000202bc4 <_init>:
  202bc4:	48 83 ec 08          	sub    $0x8,%rsp
  202bc8:	48 8b 05 01 16 00 00 	mov    0x1601(%rip),%rax        # 2041d0 <__init_array_end+0x1b0>
  202bcf:	48 85 c0             	test   %rax,%rax
  202bd2:	74 05                	je     202bd9 <_init+0x15>
  202bd4:	e8 27 d4 df ff       	callq  0 <_IO_stdin_used-0x200300>
  202bd9:	48 83 c4 08          	add    $0x8,%rsp
  202bdd:	c3                   	retq   

Disassembly of section .fini:

0000000000202be0 <_fini>:
  202be0:	48 83 ec 08          	sub    $0x8,%rsp
  202be4:	48 83 c4 08          	add    $0x8,%rsp
  202be8:	c3                   	retq   

Disassembly of section .plt:

0000000000202bf0 <__libc_start_main@plt-0x10>:
  202bf0:	ff 35 22 04 00 00    	pushq  0x422(%rip)        # 203018 <__TMC_END__+0x8>
  202bf6:	ff 25 24 04 00 00    	jmpq   *0x424(%rip)        # 203020 <__TMC_END__+0x10>
  202bfc:	0f 1f 40 00          	nopl   0x0(%rax)

0000000000202c00 <__libc_start_main@plt>:
  202c00:	ff 25 22 04 00 00    	jmpq   *0x422(%rip)        # 203028 <__TMC_END__+0x18>
  202c06:	68 00 00 00 00       	pushq  $0x0
  202c0b:	e9 e0 ff ff ff       	jmpq   202bf0 <_fini+0x10>

0000000000202c10 <_ZNSolsEi@plt>:
  202c10:	ff 25 1a 04 00 00    	jmpq   *0x41a(%rip)        # 203030 <__TMC_END__+0x20>
  202c16:	68 01 00 00 00       	pushq  $0x1
  202c1b:	e9 d0 ff ff ff       	jmpq   202bf0 <_fini+0x10>

0000000000202c20 <_ZStlsISt11char_traitsIcEERSt13basic_ostreamIcT_ES5_PKc@plt>:
  202c20:	ff 25 12 04 00 00    	jmpq   *0x412(%rip)        # 203038 <__TMC_END__+0x28>
  202c26:	68 02 00 00 00       	pushq  $0x2
  202c2b:	e9 c0 ff ff ff       	jmpq   202bf0 <_fini+0x10>

0000000000202c30 <_ZSt4endlIcSt11char_traitsIcEERSt13basic_ostreamIT_T0_ES6_@plt>:
  202c30:	ff 25 0a 04 00 00    	jmpq   *0x40a(%rip)        # 203040 <__TMC_END__+0x30>
  202c36:	68 03 00 00 00       	pushq  $0x3
  202c3b:	e9 b0 ff ff ff       	jmpq   202bf0 <_fini+0x10>

0000000000202c40 <_ZNSolsEPFRSoS_E@plt>:
  202c40:	ff 25 02 04 00 00    	jmpq   *0x402(%rip)        # 203048 <__TMC_END__+0x38>
  202c46:	68 04 00 00 00       	pushq  $0x4
  202c4b:	e9 a0 ff ff ff       	jmpq   202bf0 <_fini+0x10>

0000000000202c50 <_ZNSt14basic_ifstreamIcSt11char_traitsIcEEC1EPKcSt13_Ios_Openmode@plt>:
  202c50:	ff 25 fa 03 00 00    	jmpq   *0x3fa(%rip)        # 203050 <__TMC_END__+0x40>
  202c56:	68 05 00 00 00       	pushq  $0x5
  202c5b:	e9 90 ff ff ff       	jmpq   202bf0 <_fini+0x10>

0000000000202c60 <_ZNSt14basic_ifstreamIcSt11char_traitsIcEE7is_openEv@plt>:
  202c60:	ff 25 f2 03 00 00    	jmpq   *0x3f2(%rip)        # 203058 <__TMC_END__+0x48>
  202c66:	68 06 00 00 00       	pushq  $0x6
  202c6b:	e9 80 ff ff ff       	jmpq   202bf0 <_fini+0x10>

0000000000202c70 <_Znam@plt>:
  202c70:	ff 25 ea 03 00 00    	jmpq   *0x3ea(%rip)        # 203060 <__TMC_END__+0x50>
  202c76:	68 07 00 00 00       	pushq  $0x7
  202c7b:	e9 70 ff ff ff       	jmpq   202bf0 <_fini+0x10>

0000000000202c80 <_ZNSt7__cxx1112basic_stringIcSt11char_traitsIcESaIcEEC1Ev@plt>:
  202c80:	ff 25 e2 03 00 00    	jmpq   *0x3e2(%rip)        # 203068 <__TMC_END__+0x58>
  202c86:	68 08 00 00 00       	pushq  $0x8
  202c8b:	e9 60 ff ff ff       	jmpq   202bf0 <_fini+0x10>

0000000000202c90 <_ZSt7getlineIcSt11char_traitsIcESaIcEERSt13basic_istreamIT_T0_ES7_RNSt7__cxx1112basic_stringIS4_S5_T1_EE@plt>:
  202c90:	ff 25 da 03 00 00    	jmpq   *0x3da(%rip)        # 203070 <__TMC_END__+0x60>
  202c96:	68 09 00 00 00       	pushq  $0x9
  202c9b:	e9 50 ff ff ff       	jmpq   202bf0 <_fini+0x10>

0000000000202ca0 <_ZNKSt9basic_iosIcSt11char_traitsIcEEcvPvEv@plt>:
  202ca0:	ff 25 d2 03 00 00    	jmpq   *0x3d2(%rip)        # 203078 <__TMC_END__+0x68>
  202ca6:	68 0a 00 00 00       	pushq  $0xa
  202cab:	e9 40 ff ff ff       	jmpq   202bf0 <_fini+0x10>

0000000000202cb0 <_ZNSt7__cxx1118basic_stringstreamIcSt11char_traitsIcESaIcEEC1ESt13_Ios_Openmode@plt>:
  202cb0:	ff 25 ca 03 00 00    	jmpq   *0x3ca(%rip)        # 203080 <__TMC_END__+0x70>
  202cb6:	68 0b 00 00 00       	pushq  $0xb
  202cbb:	e9 30 ff ff ff       	jmpq   202bf0 <_fini+0x10>

0000000000202cc0 <_ZStlsIcSt11char_traitsIcESaIcEERSt13basic_ostreamIT_T0_ES7_RKNSt7__cxx1112basic_stringIS4_S5_T1_EE@plt>:
  202cc0:	ff 25 c2 03 00 00    	jmpq   *0x3c2(%rip)        # 203088 <__TMC_END__+0x78>
  202cc6:	68 0c 00 00 00       	pushq  $0xc
  202ccb:	e9 20 ff ff ff       	jmpq   202bf0 <_fini+0x10>

0000000000202cd0 <_ZNSirsERi@plt>:
  202cd0:	ff 25 ba 03 00 00    	jmpq   *0x3ba(%rip)        # 203090 <__TMC_END__+0x80>
  202cd6:	68 0d 00 00 00       	pushq  $0xd
  202cdb:	e9 10 ff ff ff       	jmpq   202bf0 <_fini+0x10>

0000000000202ce0 <__assert_fail@plt>:
  202ce0:	ff 25 b2 03 00 00    	jmpq   *0x3b2(%rip)        # 203098 <__TMC_END__+0x88>
  202ce6:	68 0e 00 00 00       	pushq  $0xe
  202ceb:	e9 00 ff ff ff       	jmpq   202bf0 <_fini+0x10>

0000000000202cf0 <_ZNSt7__cxx1118basic_stringstreamIcSt11char_traitsIcESaIcEED1Ev@plt>:
  202cf0:	ff 25 aa 03 00 00    	jmpq   *0x3aa(%rip)        # 2030a0 <__TMC_END__+0x90>
  202cf6:	68 0f 00 00 00       	pushq  $0xf
  202cfb:	e9 f0 fe ff ff       	jmpq   202bf0 <_fini+0x10>

0000000000202d00 <_ZNSt7__cxx1112basic_stringIcSt11char_traitsIcESaIcEED1Ev@plt>:
  202d00:	ff 25 a2 03 00 00    	jmpq   *0x3a2(%rip)        # 2030a8 <__TMC_END__+0x98>
  202d06:	68 10 00 00 00       	pushq  $0x10
  202d0b:	e9 e0 fe ff ff       	jmpq   202bf0 <_fini+0x10>

0000000000202d10 <_ZNSt14basic_ifstreamIcSt11char_traitsIcEED1Ev@plt>:
  202d10:	ff 25 9a 03 00 00    	jmpq   *0x39a(%rip)        # 2030b0 <__TMC_END__+0xa0>
  202d16:	68 11 00 00 00       	pushq  $0x11
  202d1b:	e9 d0 fe ff ff       	jmpq   202bf0 <_fini+0x10>

0000000000202d20 <_Unwind_Resume@plt>:
  202d20:	ff 25 92 03 00 00    	jmpq   *0x392(%rip)        # 2030b8 <__TMC_END__+0xa8>
  202d26:	68 12 00 00 00       	pushq  $0x12
  202d2b:	e9 c0 fe ff ff       	jmpq   202bf0 <_fini+0x10>

0000000000202d30 <__stack_chk_fail@plt>:
  202d30:	ff 25 8a 03 00 00    	jmpq   *0x38a(%rip)        # 2030c0 <__TMC_END__+0xb0>
  202d36:	68 13 00 00 00       	pushq  $0x13
  202d3b:	e9 b0 fe ff ff       	jmpq   202bf0 <_fini+0x10>

0000000000202d40 <sqrt@plt>:
  202d40:	ff 25 82 03 00 00    	jmpq   *0x382(%rip)        # 2030c8 <__TMC_END__+0xb8>
  202d46:	68 14 00 00 00       	pushq  $0x14
  202d4b:	e9 a0 fe ff ff       	jmpq   202bf0 <_fini+0x10>

0000000000202d50 <atoi@plt>:
  202d50:	ff 25 7a 03 00 00    	jmpq   *0x37a(%rip)        # 2030d0 <__TMC_END__+0xc0>
  202d56:	68 15 00 00 00       	pushq  $0x15
  202d5b:	e9 90 fe ff ff       	jmpq   202bf0 <_fini+0x10>

0000000000202d60 <_ZNSt8ios_base4InitC1Ev@plt>:
  202d60:	ff 25 72 03 00 00    	jmpq   *0x372(%rip)        # 2030d8 <__TMC_END__+0xc8>
  202d66:	68 16 00 00 00       	pushq  $0x16
  202d6b:	e9 80 fe ff ff       	jmpq   202bf0 <_fini+0x10>

0000000000202d70 <_ZNSt8ios_base4InitD1Ev@plt>:
  202d70:	ff 25 6a 03 00 00    	jmpq   *0x36a(%rip)        # 2030e0 <__TMC_END__+0xd0>
  202d76:	68 17 00 00 00       	pushq  $0x17
  202d7b:	e9 70 fe ff ff       	jmpq   202bf0 <_fini+0x10>

0000000000202d80 <__cxa_atexit@plt>:
  202d80:	ff 25 62 03 00 00    	jmpq   *0x362(%rip)        # 2030e8 <__TMC_END__+0xd8>
  202d86:	68 18 00 00 00       	pushq  $0x18
  202d8b:	e9 60 fe ff ff       	jmpq   202bf0 <_fini+0x10>

0000000000202d90 <__gxx_personality_v0@plt>:
  202d90:	ff 25 5a 03 00 00    	jmpq   *0x35a(%rip)        # 2030f0 <__TMC_END__+0xe0>
  202d96:	68 19 00 00 00       	pushq  $0x19
  202d9b:	e9 50 fe ff ff       	jmpq   202bf0 <_fini+0x10>
